; Function Attrs: mustprogress nounwind uwtable
define dso_local noundef float @_ZNK4llvm22ConstantDataSequential17getElementAsFloatEj(ptr nocapture noundef nonnull readonly align 8 dereferenceable(40) %0, i32 noundef %1) local_unnamed_addr #0 align 2 {
  %3 = alloca %"class.llvm::TypeSize", align 8
  %4 = getelementptr inbounds nuw i8, ptr %0, i64 24
  %5 = load ptr, ptr %4, align 8
  %6 = zext i32 %1 to i64
  call void @llvm.lifetime.start.p0(i64 16, ptr nonnull %3)
  %7 = getelementptr inbounds nuw i8, ptr %0, i64 8
  %8 = load ptr, ptr %7, align 8
  %.0.in.i.i.i = getelementptr inbounds nuw i8, ptr %8, i64 24
  %.0.i.i.i = load ptr, ptr %.0.in.i.i.i, align 8
  %9 = tail call { i64, i8 } @_ZNK4llvm4Type22getPrimitiveSizeInBitsEv(ptr noundef nonnull align 8 dereferenceable(24) %.0.i.i.i) #30
  %.fca.0.extract.i.i = extractvalue { i64, i8 } %9, 0
  %.fca.1.extract.i.i = extractvalue { i64, i8 } %9, 1
  store i64 %.fca.0.extract.i.i, ptr %3, align 8
  %.sroa.2.0..sroa_idx.i.i = getelementptr inbounds i8, ptr %3, i64 8
  store i8 %.fca.1.extract.i.i, ptr %.sroa.2.0..sroa_idx.i.i, align 8
  %10 = call noundef i64 @_ZNK4llvm8TypeSizecvmEv(ptr noundef nonnull align 8 dereferenceable(9) %3) #28
  %11 = lshr i64 %10, 3
  call void @llvm.lifetime.end.p0(i64 16, ptr nonnull %3)
  %12 = mul i64 %11, %6
  %13 = getelementptr inbounds i8, ptr %5, i64 %12
  %14 = load float, ptr %13, align 4
  ret float %14
}